; Function Attrs: mustprogress nounwind uwtable
define hidden void @_ZN6Assimp7Blender18getCustomDataLayerERKNS0_10CustomDataENS0_14CustomDataTypeERKNSt7__cxx1112basic_stringIcSt11char_traitsIcESaIcEEE(ptr noalias nocapture writeonly sret(%"class.std::shared_ptr.34") align 8 %agg.result, ptr nocapture noundef nonnull readonly align 8 dereferenceable(220) %customdata, i32 noundef %cdtype, ptr noundef nonnull align 8 dereferenceable(32) %name) local_unnamed_addr #5 personality ptr @__gxx_personality_v0 {
entry:
  %layers = getelementptr inbounds i8, ptr %customdata, i64 16
  %0 = load ptr, ptr %layers, align 8
  %_M_finish.i = getelementptr inbounds i8, ptr %customdata, i64 24
  %1 = load ptr, ptr %_M_finish.i, align 8
  %cmp.i.not8 = icmp eq ptr %0, %1
  br i1 %cmp.i.not8, label %for.end, label %for.body

for.body:                                         ; preds = %entry, %for.inc
  %2 = phi ptr [ %10, %for.inc ], [ %1, %entry ]
  %it.sroa.0.09 = phi ptr [ %incdec.ptr.i, %for.inc ], [ %0, %entry ]
  %3 = load ptr, ptr %it.sroa.0.09, align 8
  %type = getelementptr inbounds i8, ptr %3, i64 16
  %4 = load i32, ptr %type, align 8
  %cmp = icmp eq i32 %4, %cdtype
  br i1 %cmp, label %land.lhs.true, label %for.inc

land.lhs.true:                                    ; preds = %for.body
  %name9 = getelementptr inbounds i8, ptr %3, i64 48
  %call.i = tail call noundef i32 @_ZNKSt7__cxx1112basic_stringIcSt11char_traitsIcESaIcEE7compareEPKc(ptr noundef nonnull align 8 dereferenceable(32) %name, ptr noundef nonnull %name9) #14
  %cmp.i2 = icmp eq i32 %call.i, 0
  br i1 %cmp.i2, label %if.then, label %land.lhs.true.for.inc_crit_edge

land.lhs.true.for.inc_crit_edge:                  ; preds = %land.lhs.true
  %.pre = load ptr, ptr %_M_finish.i, align 8
  br label %for.inc

if.then:                                          ; preds = %land.lhs.true
  %5 = load ptr, ptr %it.sroa.0.09, align 8
  store ptr %5, ptr %agg.result, align 8
  %_M_refcount.i.i = getelementptr inbounds i8, ptr %agg.result, i64 8
  %_M_refcount3.i.i = getelementptr inbounds i8, ptr %it.sroa.0.09, i64 8
  %6 = load ptr, ptr %_M_refcount3.i.i, align 8
  store ptr %6, ptr %_M_refcount.i.i, align 8
  %cmp.not.i.i.i = icmp eq ptr %6, null
  br i1 %cmp.not.i.i.i, label %return, label %if.then.i.i.i

if.then.i.i.i:                                    ; preds = %if.then
  %_M_use_count.i.i.i.i = getelementptr inbounds i8, ptr %6, i64 8
  %7 = load i8, ptr @__libc_single_threaded, align 1
  %tobool.i.not.i.i.i.i = icmp eq i8 %7, 0
  br i1 %tobool.i.not.i.i.i.i, label %if.else.i.i.i.i.i, label %if.then.i.i.i.i.i

if.then.i.i.i.i.i:                                ; preds = %if.then.i.i.i
  %8 = load i32, ptr %_M_use_count.i.i.i.i, align 4
  %add.i.i.i.i.i = add nsw i32 %8, 1
  store i32 %add.i.i.i.i.i, ptr %_M_use_count.i.i.i.i, align 4
  br label %return

if.else.i.i.i.i.i:                                ; preds = %if.then.i.i.i
  %9 = atomicrmw volatile add ptr %_M_use_count.i.i.i.i, i32 1 acq_rel, align 4
  br label %return

for.inc:                                          ; preds = %land.lhs.true.for.inc_crit_edge, %for.body
  %10 = phi ptr [ %.pre, %land.lhs.true.for.inc_crit_edge ], [ %2, %for.body ]
  %incdec.ptr.i = getelementptr inbounds i8, ptr %it.sroa.0.09, i64 16
  %cmp.i.not = icmp eq ptr %incdec.ptr.i, %10
  br i1 %cmp.i.not, label %for.end, label %for.body, !llvm.loop !15

for.end:                                          ; preds = %for.inc, %entry
  tail call void @llvm.memset.p0.i64(ptr noundef nonnull align 8 dereferenceable(16) %agg.result, i8 0, i64 16, i1 false)
  br label %return

return:                                           ; preds = %if.else.i.i.i.i.i, %if.then.i.i.i.i.i, %if.then, %for.end
  ret void
}